MPASM  5.51                       PROJECT.ASM   5-31-2026  23:11:30         PAGE  1


LOC  OBJECT CODE     LINE SOURCE TEXT
  VALUE

                      00001 #include p16f877a.inc
                      00001         LIST
                      00002 
                      00003 ;==========================================================================
                      00004 ;  MPASM PIC16F877A processor include
                      00005 ; 
                      00006 ;  (c) Copyright 1999-2013 Microchip Technology, All rights reserved
                      00007 ;==========================================================================
                      00008 
                      00566         LIST
                      00002 #define PORT_LCD  PORTD
                      00003 #define TRIS_LCD  TRISD 
                      00004 #define LCD_RST   0    ; RD0 - Reset (active low)
                      00005 #define LCD_DC    1    ; RD1 - Data/Command select
                      00006 #define LCD_CE    2    ; RD2 - Chip Enable (active low)
                      00007 #define BTN_PORT  PORTB
                      00008 #define BTN_TRIS  TRISB 
                      00009 ; Push Buttons (active low) 
                      00010 #define BTN_SEL   4
                      00011 #define BTN_ENT   5
                      00012 #define BTN_BCK   6
                      00013   CBLOCK 0x20
  00000020            00014 W_TEMP,STATUS_TEMP,CURRENT_MENU,SYSTEM_MODE,FLAGS,CLEAR_CTR_HI,CLEAR_CTR_LO
                      00015   endc
                      00016   CBLOCK 0x27
  00000027            00017 TICK_COUNT,CLK_SEC,CLK_MIN,CLK_HOUR,SW_MS,SW_SEC,SW_MI,SW_HOUR,Index,Digit,FONT_TEMP,First_Digit,Second_
                            Digit,clkTickFlag,HSLM_POS,HSLM_TICK,COLON_STATE,BTN_LOCK
                      00018   endc
                      00019 #define TICK_FLG     FLAGS,0      ; set by ISR each Timer0 overflow
                      00020 #define BTN_SEL_FLG  FLAGS,1      ; SELECT pressed this tick
                      00021 #define BTN_ENT_FLG  FLAGS,2      ; ENTER  pressed this tick
                      00022 #define BTN_BCK_FLG  FLAGS,3      ; BACK   pressed this tick
                      00023 #define CLK_UPD_FLG  FLAGS,4      ; (reserved) clock update pending
                      00024 #define SW_UPD_FLG   FLAGS,5      ; (reserved) stopwatch update pending
                      00025 #define SW_RUNNING   FLAGS,6      ; 1 = stopwatch is counting
                      00026 
                      00027 #define BTN_SEL_LOCK BTN_LOCK,0   ; prevents repeat-fire while held
                      00028 #define BTN_ENT_LOCK BTN_LOCK,1
                      00029 #define BTN_BCK_LOCK BTN_LOCK,2
                      00030 
                      00031 ;  PROJECT: Multi-Mode Display System (PIC16F877A + Nokia 5110 LCD)
                      00032 ;  MODES:
                      00033 ;    0x00 - Clock       (HH:MM:SS with blinking separators)
                      00034 ;    0x01 - Stopwatch   (HH:MM:SS, Start/Stop via ENTER button)
                      00035 ;    0x02 - HSLM        (Scrolling horizontal marquee animation)
                      00036 ;    0xFF - Main Menu   (SELECT cycles items, ENTER opens, BACK returns)
                      00037 ;  HARDWARE:
                      00038 ;    LCD  -> PORTD (SPI via MSSP): RST=RD0, DC=RD1, CE=RD2
                      00039 ;    BTNs -> PORTB (active-low):   SEL=RB4, ENT=RB5, BCK=RB6
                      00040 ;    Timer0 ISR fires every ~1ms  (Prescaler 1:256, Fosc=4MHz)
                      00041 ;    77 ticks = ~1 second
                      00042 
0000                  00043     org 0x00
MPASM  5.51                       PROJECT.ASM   5-31-2026  23:11:30         PAGE  2


LOC  OBJECT CODE     LINE SOURCE TEXT
  VALUE

0000   2811           00044     goto START_INITIALIZE  ; reset vector --> initialization
0004                  00045     org 0x04               ; interrupt vector
                      00046     
                      00047     ;ISR - Timer0 Overflow Handler \  Fires every ~1ms.
0004                  00048 ISR:
0004   00A0           00049     MOVWF W_TEMP                
0005   0E03           00050     SWAPF STATUS, W       ; save W
0006   00A1           00051     MOVWF STATUS_TEMP     ; save STATUS (swap avoids affecting flags)
                      00052     
0007   1D0B           00053     BTFSS INTCON,T0IF     ; was this a Timer0 interrupt?
0008   280C           00054     GOTO  ISR_EXIT        ; no  -> skip
0009   110B           00055     BCF   INTCON, T0IF    ; yes -> clear flag
                      00056     
000A   0AA7           00057     INCF  TICK_COUNT,F    ; count the tick
000B   1424           00058     BSF   TICK_FLG        ; signal main loop
000C                  00059 ISR_EXIT:
000C   0E21           00060     SWAPF STATUS_TEMP, W  ; restore STATUS
000D   0083           00061     MOVWF STATUS              
000E   0EA0           00062     SWAPF W_TEMP, F       ; restore W (swap trick: no flag change)
000F   0E20           00063     SWAPF W_TEMP, W          
0010   0009           00064     RETFIE                  
                      00065       
0011                  00066 START_INITIALIZE:
0011   1683 1303      00067     BANKSEL TRIS_LCD
Message[302]: Register in operand not in bank 0.  Ensure that bank bits are correct.
0013   0188           00068     CLRF    TRIS_LCD           ;LCD port: all outputs
                      00069     ;Timer0 setup
0014   202C           00070     CALL    INIT_TIMER0           
                      00071     ;Button pins : inputs
0015   1683 1303      00072     BANKSEL BTN_TRIS
Message[302]: Register in operand not in bank 0.  Ensure that bank bits are correct.
0017   1606           00073     BSF     BTN_TRIS, BTN_SEL   
Message[302]: Register in operand not in bank 0.  Ensure that bank bits are correct.
0018   1686           00074     BSF     BTN_TRIS, BTN_ENT  
Message[302]: Register in operand not in bank 0.  Ensure that bank bits are correct.
0019   1706           00075     BSF     BTN_TRIS, BTN_BCK 
                      00076     ;SPI (MSSP) + LCD init    
001A   2038           00077     call    INIT_MSSP
001B   2041           00078     call    INITIALIZE_LCD
001C   20CA           00079     call    CLEAR_SCREEN
                      00080     ;Variable reset 
001D   30FF           00081     MOVLW   0xFF
001E   00A3           00082     MOVWF   SYSTEM_MODE        ;start in main-menu state 
001F   01A2           00083     CLRF    CURRENT_MENU       ;cursor on first item (Clock)
0020   01A4           00084     CLRF    FLAGS
0021   01B8           00085     CLRF    BTN_LOCK
                      00086     ;Clock default: 12:00:00
0022   300C           00087     MOVLW   d'12'
0023   00AA           00088     MOVWF   CLK_HOUR
0024   01A9           00089     CLRF    CLK_MIN
0025   01A8           00090     CLRF    CLK_SEC
0026   01B7           00091     CLRF    COLON_STATE
                      00092     ;HSLM default position
MPASM  5.51                       PROJECT.ASM   5-31-2026  23:11:30         PAGE  3


LOC  OBJECT CODE     LINE SOURCE TEXT
  VALUE

0027   01B6           00093     CLRF    HSLM_TICK
0028   303C           00094     MOVLW   D'60'
0029   00B5           00095     MOVWF   HSLM_POS
                      00096     ;Draw main menu and enter loop 
002A   211B           00097     CALL    SHOW_MAIN_MENU
002B   2854           00098     GOTO    MAIN
                      00099 
                      00100     ;INIT_TIMER0:Prescaler 1:256, internal clock. 
                      00101     ;~1ms overflow at 4MHz.
                      00102     ;Enables GIE + T0IE.
002C                  00103 INIT_TIMER0:
002C   1683 1303      00104     BANKSEL OPTION_REG           
002E   3007           00105     MOVLW   b'00000111' ; TOCS=0 (internal), PS=111 (1:256) 
Message[302]: Register in operand not in bank 0.  Ensure that bank bits are correct.
002F   0081           00106     MOVWF   OPTION_REG
0030   1283 1303      00107     BANKSEL TMR0
0032   0181           00108     CLRF    TMR0
0033   1283 1303      00109     BANKSEL INTCON
0035   30E0           00110     MOVLW   b'11100000' ; GIE=1, PEIE=1, T0IE=1
0036   008B           00111     MOVWF   INTCON    
0037   0008           00112     RETURN 
                      00113     
                      00114     ;INIT_MSSP --> Configures hardware SPI: Master, Fosc/4, CKP=0 (idle low), CKE=0.
                      00115     ;RC3=SCLK (output), RC5=SDIN (output).    
0038                  00116 INIT_MSSP:     
0038   1683           00117     BSF     STATUS,RP0   ; Bank1        
Message[302]: Register in operand not in bank 0.  Ensure that bank bits are correct.
0039   1187           00118     BCF     TRISC, 3     ; RC3 = SCLK  OUTPUT 
Message[302]: Register in operand not in bank 0.  Ensure that bank bits are correct.
003A   1287           00119     BCF     TRISC, 5     ; RC5 = SDIN  OUTPUT
Message[302]: Register in operand not in bank 0.  Ensure that bank bits are correct.
003B   0194           00120     CLRF    SSPSTAT      ; SMP(bit7)=0 (sample middle) , CKE(bit6)=0 (rising edge)
003C   1283           00121     BCF     STATUS,RP0   ; Bank0
                      00122     ;SSPM3:SSPM0(bit3-0)= 0000 (SPI Master Fosc/4)
                      00123     ;SSPEN(bit5)=1 MSSP is ON / CKP(bit4)=0 LOW to HIGH
003D   3020           00124     MOVLW   B'00100000'    
003E   0094           00125     MOVWF   SSPCON
003F   118C           00126     BCF     PIR1 , SSPIF  ; clear any stale SPI flag    
0040   0008           00127     RETURN
                      00128           
                      00129     ;  INITIALIZE_LCD : Hardware reset pulse, then extended-instruction-set configuration.              
                              
0041                  00130 INITIALIZE_LCD:
0041   1008           00131     BCF     PORT_LCD, LCD_RST  ; pull RST low 
0042   0000           00132     NOP
0043   0000           00133     NOP
0044   1408           00134     BSF     PORT_LCD, LCD_RST  ; release RST
                      00135     
0045   1003           00136     BCF     STATUS, C          ; C=0 --- command mode
0046   3021           00137     MOVLW   0x21               ; extended instruction mode  
0047   20A9           00138     CALL    SEND_CMD 
0048   30BF           00139     MOVLW   0xBF               ; set VOP    
0049   20A9           00140     CALL    SEND_CMD 
MPASM  5.51                       PROJECT.ASM   5-31-2026  23:11:30         PAGE  4


LOC  OBJECT CODE     LINE SOURCE TEXT
  VALUE

004A   3004           00141     MOVLW   0x04               ; temperature coefficient  
004B   20A9           00142     CALL    SEND_CMD
004C   3014           00143     MOVLW   0x14               ; bias system (1:48) 
004D   20A9           00144     CALL    SEND_CMD
004E   3020           00145     MOVLW   0x20               ; normal instruction mode  
004F   20A9           00146     CALL    SEND_CMD 
0050   300C           00147     MOVLW   0x0C               ;display on, normal mode 
0051   20A9           00148     CALL    SEND_CMD
                      00149     
0052   1283           00150     BCF     STATUS,RP0 
0053   0008           00151     RETURN 
                      00152     
                      00153     
                      00154     ;MAIN LOOP : Waits for the TICK_FLG set by the ISR, then:
                      00155     ;1. Runs per-tick math (HSLM animation + 1-second counters)
                      00156     ;2. Polls buttons and routes to actions 
0054                  00157 MAIN: 
0054   1C24           00158     BTFSS TICK_FLG            ; wait for ISR tick
0055   2854           00159     GOTO  MAIN
0056   1024           00160     BCF   TICK_FLG            ; acknowledge tick
                      00161      
0057   205B           00162     CALL  StartCounter        ; update timers / displays
0058   205A           00163     CALL  RUN_POLL_INTERFACES ; check buttons
0059   2854           00164     GOTO  MAIN
                      00165     
005A                  00166 RUN_POLL_INTERFACES:
005A   28F8           00167     GOTO    POLL_INTERFACES 
                      00168     
                      00169     ;TICK PROCESSING - StartCounter : Called every tick (~1ms).
                      00170     ;Always runs HSLM animation sub-tick.
                      00171     ;Every 77 ticks: updates clock, optionally updates stopwatch,
                      00172     ;then refreshes the active screen.        
005B                  00173 StartCounter:
005B   168B           00174    BSF     INTCON, T0IE   ; ensure Timer0 interrupt is enabled
005C   206F           00175    CALL    HSLM_MATH      ; animation runs every tick
                      00176    
005D   304D           00177    MOVLW   d'77'          ; 77 ticks ~ 1 second
005E   0227           00178    SUBWF   TICK_COUNT, W
005F   1D03           00179    BTFSS   STATUS, Z
0060   0008           00180    RETURN                 ; not a second yet
                      00181    
0061   01A7           00182    CLRF    TICK_COUNT     ; reset accumulator
                      00183    
0062   2081           00184    CALL    CLOCK_MATH     ; clock always runs
0063   1F24           00185    BTFSS   SW_RUNNING     ; stopwatch runs only if SW_RUNNING = 1
0064   2866           00186    GOTO    REFRESH_ACTIVE_SCREEN
0065   2096           00187    CALL    STOPWATCH_MATH
                      00188    
0066                  00189 REFRESH_ACTIVE_SCREEN:
0066   0823           00190    MOVF    SYSTEM_MODE, W
0067   3A00           00191    XORLW   0x00
0068   1903           00192    BTFSC   STATUS, Z
0069   2157           00193    CALL    UpdateClock    ; refresh clock display
MPASM  5.51                       PROJECT.ASM   5-31-2026  23:11:30         PAGE  5


LOC  OBJECT CODE     LINE SOURCE TEXT
  VALUE

                      00194    
006A   0823           00195    MOVF    SYSTEM_MODE, W
006B   3A01           00196    XORLW   0x01
006C   1903           00197    BTFSC   STATUS, Z
006D   21AB           00198    CALL    UpdateStopWatch ; refresh stopwatch display
006E   0008           00199    RETURN
                      00200    
                      00201 
                      00202 ;HSLM ANIMATION MATH : Fires every 8 ticks (not every second).
                      00203 ;Moves the HSLM sprite one pixel left; wraps at 0 back to column 48.
                      00204 ;Only draws when SYSTEM_MODE == 0x02 (HSLM screen is open).
006F                  00205 HSLM_MATH:
006F   0AB6           00206    INCF    HSLM_TICK, F
0070   3008           00207    MOVLW   d'8'
0071   0236           00208    SUBWF   HSLM_TICK, W
0072   1D03           00209    BTFSS   STATUS, Z
0073   0008           00210    RETURN                 ; not 8 ticks yet
                      00211 
0074   01B6           00212    CLRF    HSLM_TICK      ; reset sub-tick
                      00213    
0075   0823           00214    MOVF    SYSTEM_MODE, W ; only animate on HSLM screen
0076   3A02           00215    XORLW   0x02
0077   1D03           00216    BTFSS   STATUS, Z
0078   0008           00217    RETURN
                      00218 
0079   03B5           00219    DECF    HSLM_POS, F    ; move sprite left
007A   08B5           00220    MOVF    HSLM_POS, F    ; check if reached 0
007B   1D03           00221    BTFSS   STATUS, Z
007C   287F           00222    GOTO    HSLM_DRAW_NOW
007D   3030           00223    MOVLW   D'48'          ; wrap: reset to right edge
007E   00B5           00224    MOVWF   HSLM_POS
                      00225    
007F                  00226 HSLM_DRAW_NOW:
007F   218A           00227    CALL    DrawHSLMScreen
0080   0008           00228    RETURN
                      00229    
                      00230 ;CLOCK MATH(called every second)
                      00231 ;Increments SEC -> MIN -> HOUR with rollover (24-hour format).
                      00232 ;Also toggles COLON_STATE for blinking separators.
0081                  00233 CLOCK_MATH:
0081   3001           00234    MOVLW   0x01
0082   06B7           00235    XORWF   COLON_STATE, F       ; bonus: blink clock separators
                      00236    
0083   0AA8           00237    INCF    CLK_SEC, F
0084   303C           00238    MOVLW   d'60'
0085   0228           00239    SUBWF   CLK_SEC, W
0086   1D03           00240    BTFSS   STATUS, Z
0087   0008           00241    RETURN                       ; seconds not rolled over
                      00242    
0088   01A8           00243    CLRF    CLK_SEC
0089   0AA9           00244    INCF    CLK_MIN, F
                      00245 
008A   303C           00246    MOVLW   d'60'
MPASM  5.51                       PROJECT.ASM   5-31-2026  23:11:30         PAGE  6


LOC  OBJECT CODE     LINE SOURCE TEXT
  VALUE

008B   0229           00247    SUBWF   CLK_MIN, W
008C   1D03           00248    BTFSS   STATUS, Z
008D   0008           00249    RETURN
                      00250 
008E   01A9           00251    CLRF    CLK_MIN
008F   0AAA           00252    INCF    CLK_HOUR, F
                      00253 
0090   3018           00254    MOVLW   d'24'
0091   022A           00255    SUBWF   CLK_HOUR, W
0092   1D03           00256    BTFSS   STATUS, Z
0093   0008           00257    RETURN
                      00258 
0094   01AA           00259    CLRF    CLK_HOUR             ; midnight rollover
0095   0008           00260    RETURN
                      00261 
                      00262 ;STOPWATCH MATH(called every second, only when SW_RUNNING=1)
                      00263 ;Increments SEC -> MIN -> HOUR with same rollover logic as clock.
0096                  00264 STOPWATCH_MATH:
0096   0AAC           00265    INCF    SW_SEC, F
0097   303C           00266    MOVLW   d'60'
0098   022C           00267    SUBWF   SW_SEC, W
0099   1D03           00268    BTFSS   STATUS, Z
009A   0008           00269    RETURN
                      00270 
009B   01AC           00271    CLRF    SW_SEC
009C   0AAD           00272    INCF    SW_MI, F
                      00273 
009D   303C           00274    MOVLW   d'60'
009E   022D           00275    SUBWF   SW_MI, W
009F   1D03           00276    BTFSS   STATUS, Z
00A0   0008           00277    RETURN
                      00278 
00A1   01AD           00279    CLRF    SW_MI
00A2   0AAE           00280    INCF    SW_HOUR, F
                      00281 
00A3   3018           00282    MOVLW   d'24'
00A4   022E           00283    SUBWF   SW_HOUR, W
00A5   1D03           00284    BTFSS   STATUS, Z
00A6   0008           00285    RETURN
                      00286 
00A7   01AE           00287    CLRF    SW_HOUR
00A8   0008           00288    RETURN
                      00289    
                      00290 
                      00291 ;SEND_CMD   W -> PCD8544 as a command byte  (DC=0)
                      00292 ;SEND_DATA  W -> PCD8544 as a data byte     (DC=1)
                      00293 ;SEND_INV_DATA  inverts W then calls SEND_DATA  (used for highlighted text)       
                      00294 
00A9                  00295 SEND_CMD:
00A9   1283           00296     BCF     STATUS, RP0              
00AA   1088           00297     BCF     PORT_LCD, LCD_DC  ;Command Mode  DC=0
00AB   1108           00298     BCF     PORT_LCD, LCD_CE  ;Enable Chip Select (Pull CE Low)
00AC   0093           00299     MOVWF   SSPBUF            ;Start SPI transmission      
MPASM  5.51                       PROJECT.ASM   5-31-2026  23:11:30         PAGE  7


LOC  OBJECT CODE     LINE SOURCE TEXT
  VALUE

00AD                  00300 WAIT_SPI_CMD:
00AD   1283           00301     BCF     STATUS, RP0       
00AE   1D8C           00302     BTFSS   PIR1, SSPIF       ;Wait for transfer complete
00AF   28AD           00303     GOTO    WAIT_SPI_CMD      
00B0   118C           00304     BCF     PIR1, SSPIF       
00B1   1283           00305     BCF     STATUS, RP0       
00B2   1508           00306     BSF     PORT_LCD, LCD_CE  ;Disable Chip Select (Pull CE High)
00B3   0008           00307     RETURN
                      00308      
00B4                  00309 SEND_DATA:
00B4   1283           00310     BCF     STATUS, RP0          
00B5   1488           00311     BSF     PORT_LCD, LCD_DC  ;Data Mode DC=1  
00B6   1108           00312     BCF     PORT_LCD, LCD_CE  ;Enable Chip Select (Pull CE Low)
00B7   0093           00313     MOVWF   SSPBUF            ;Start ISP transmission  
00B8                  00314 WAIT_SPI_DATA:
00B8   1283           00315     BCF     STATUS, RP0       
00B9   1D8C           00316     BTFSS   PIR1, SSPIF       ;Wait for transfer complete
00BA   28B8           00317     GOTO    WAIT_SPI_DATA     
00BB   118C           00318     BCF     PIR1, SSPIF       
00BC   1283           00319     BCF     STATUS, RP0       
00BD   1508           00320     BSF     PORT_LCD, LCD_CE  ;Disable Chip Select (Pull CE High)
00BE   0008           00321     RETURN
                      00322     
00BF                  00323 SEND_INV_DATA:
00BF   3AFF           00324     XORLW   0xFF              ;Invert all bits (highlight effect)
00C0   20B4           00325     CALL    SEND_DATA
00C1   0008           00326     RETURN
                      00327   
                      00328 ;SET_LCD_ROW   W = row (0-5)
                      00329 ;Positions cursor to the start of the requested page row.  
00C2                  00330 SET_LCD_ROW:   
00C2   00A0           00331    MOVWF   W_TEMP              
00C3   0820           00332    MOVF    W_TEMP, W           
00C4   3907           00333    ANDLW   0x07                ;ensure row is strictly between 0 and 7 
00C5   3840           00334    IORLW   0x40                ;PCD8544 Set Y-Address command    
00C6   20A9           00335    CALL    SEND_CMD                    
00C7   3080           00336    MOVLW   0x80                ;PCD8544 Set X-Address command (column 0)   
00C8   20A9           00337    CALL    SEND_CMD                  
00C9   0008           00338    RETURN
                      00339     
                      00340 ;CLEAR_SCREEN:Fills all 84x6 = 504 bytes with 0x00, then resets cursor to top-left.                   
00CA                  00341 CLEAR_SCREEN:
                      00342     ; Set X address = 0
00CA   3080           00343     MOVLW   0x80
00CB   20A9           00344     CALL    SEND_CMD
                      00345     ; Set Y address = 0
00CC   3040           00346     MOVLW   0x40
00CD   20A9           00347     CALL    SEND_CMD
                      00348     ; LCD size = 84 columns * 6 banks = 504 bytes
00CE   3006           00349     MOVLW   D'6'        ; 6 pages
00CF   00A5           00350     MOVWF   CLEAR_CTR_HI
00D0                  00351 CLEAR_PAGE_LOOP:
00D0   3054           00352     MOVLW   D'84'       ; 84 columns per page
MPASM  5.51                       PROJECT.ASM   5-31-2026  23:11:30         PAGE  8


LOC  OBJECT CODE     LINE SOURCE TEXT
  VALUE

00D1   00A6           00353     MOVWF   CLEAR_CTR_LO
00D2                  00354 CLEAR_COL_LOOP:
00D2   3000           00355     MOVLW   0x00
00D3   20B4           00356     CALL    SEND_DATA      ; IMPORTANT: SEND_DATA, not SEND_CMD
00D4   0BA6           00357     DECFSZ  CLEAR_CTR_LO, F
00D5   28D2           00358     GOTO    CLEAR_COL_LOOP
00D6   0BA5           00359     DECFSZ  CLEAR_CTR_HI, F
00D7   28D0           00360     GOTO    CLEAR_PAGE_LOOP
                      00361     ; Put cursor back to top-left
00D8   3080           00362     MOVLW   0x80
00D9   20A9           00363     CALL    SEND_CMD
00DA   3040           00364     MOVLW   0x40
00DB   20A9           00365     CALL    SEND_CMD
00DC   0008           00366     RETURN
                      00367        
                      00368 
                      00369 ;BUTTON HANDLING:
                      00370 ;1.CHECK_BUTTONS:Reads all three buttons.  
                      00371 ;Each button uses a lock bit so only one event
                      00372 ;fires per press (no auto-repeat).
                      00373 ;Sets BTN_xxx_FLG on falling edge.   
00DD                  00374 CHECK_BUTTONS:
00DD   1283 1303      00375     BANKSEL BTN_PORT
                      00376     
                      00377 ;SELECT button: (RB4/active low/one event per press).
00DF   1A06           00378     BTFSC   BTN_PORT, BTN_SEL
00E0   28E6           00379     GOTO    SEL_RELEASED
00E1   1838           00380     BTFSC   BTN_SEL_LOCK      ; already locked? -> no new event
00E2   28E7           00381     GOTO    CHK_ENTER
00E3   14A4           00382     BSF     BTN_SEL_FLG       ; new press
00E4   1438           00383     BSF     BTN_SEL_LOCK
00E5   28E7           00384     GOTO    CHK_ENTER
00E6                  00385 SEL_RELEASED:
00E6   1038           00386     BCF     BTN_SEL_LOCK      ; unlock when released
                      00387 
                      00388 ;ENTER button: (RB5/active low/one event per press).
00E7                  00389 CHK_ENTER:
00E7   1A86           00390     BTFSC   BTN_PORT, BTN_ENT
00E8   28EE           00391     GOTO    ENT_RELEASED
00E9   18B8           00392     BTFSC   BTN_ENT_LOCK
00EA   28EF           00393     GOTO    CHK_BACK
00EB   1524           00394     BSF     BTN_ENT_FLG
00EC   14B8           00395     BSF     BTN_ENT_LOCK
00ED   28EF           00396     GOTO    CHK_BACK
00EE                  00397 ENT_RELEASED:
00EE   10B8           00398     BCF     BTN_ENT_LOCK
                      00399 
                      00400 ;BACK button: (RB6/active low/one event per press).
00EF                  00401 CHK_BACK:
00EF   1B06           00402     BTFSC   BTN_PORT, BTN_BCK
00F0   28F6           00403     GOTO    BCK_RELEASED
00F1   1938           00404     BTFSC   BTN_BCK_LOCK
00F2   0008           00405     RETURN
MPASM  5.51                       PROJECT.ASM   5-31-2026  23:11:30         PAGE  9


LOC  OBJECT CODE     LINE SOURCE TEXT
  VALUE

00F3   15A4           00406     BSF     BTN_BCK_FLG
00F4   1538           00407     BSF     BTN_BCK_LOCK
00F5   0008           00408     RETURN
00F6                  00409 BCK_RELEASED:
00F6   1138           00410     BCF     BTN_BCK_LOCK
00F7   0008           00411     RETURN
                      00412     
                      00413 ;2.INPUT ROUTING --> (POLL_INTERFACES) 
                      00414 ;Priority: SELECT -> ENTER -> BACK
                      00415 ;SELECT: cycles CURRENT_MENU (only in main menu), redraws menu.
                      00416 ;ENTER:  opens the selected mode -OR- toggles stopwatch start/stop.
                      00417 ;BACK:   returns to main menu from any mode.  
00F8                  00418 POLL_INTERFACES:    
00F8   20DD           00419     CALL    CHECK_BUTTONS       ; read buttons and set BTN_SEL_FLG, BTN_ENT_FLG, BTN_BCK_FLG
                      00420     ;SELECT: cycle through menu items
00F9   1CA4           00421     BTFSS   BTN_SEL_FLG         ; was SELECT pressed this tick?       
00FA   2906           00422     GOTO    ROUTE_ENTER         ; no -> skip to ENTER check
00FB   10A4           00423     BCF     BTN_SEL_FLG         ; yes -> clear flag (acknowledge)
                      00424     
                      00425     ; SELECT only works when we are on the main menu (SYSTEM_MODE = 0xFF).
                      00426     ; If we're inside a mode screen, ignore SELECT completely.        
00FC   0823           00427     MOVF    SYSTEM_MODE, W      ; only cycle if on main menu   
00FD   3AFF           00428     XORLW   0xFF                ; XOR with 0xFF: result=0 only if SYSTEM_MODE=0xFF
00FE   1D03           00429     BTFSS   STATUS, Z           ; Z=1 -> we are on the menu
00FF   2906           00430     GOTO    ROUTE_ENTER         ; Z=0 -> inside a mode, ignore SELECT    
                      00431     
0100   0AA2           00432     INCF    CURRENT_MENU, F     ; move cursor to next menu item
0101   3003           00433     MOVLW   D'3'                
0102   0222           00434     SUBWF   CURRENT_MENU, W     ; check if we passed the last item (3 items: 0,1,2)
0103   1903           00435     BTFSC   STATUS, Z          
0104   01A2           00436     CLRF    CURRENT_MENU        ; Wrap back around to 0
0105   211B           00437     CALL    SHOW_MAIN_MENU      ; redraw menu with new selection highlighted 
                      00438    
                      00439     ;ENTER: open mode or toggle stopwatch
0106                  00440 ROUTE_ENTER:    
0106   1D24           00441     BTFSS   BTN_ENT_FLG         ; was ENTER pressed?  
0107   2912           00442     GOTO    ROUTE_BACK     
0108   1124           00443     BCF     BTN_ENT_FLG 
                      00444             
0109   0823           00445     MOVF    SYSTEM_MODE, W      
010A   3AFF           00446     XORLW   0xFF                ;  are we on the main menu?
010B   1D03           00447     BTFSS   STATUS, Z     
010C   29D8           00448     GOTO    STOPWATCH_TOGGLE    ; inside a mode -> ENTER = start/stop stopwatch
                      00449     
                      00450     ; On main menu: open the selected mode
010D   0822           00451     MOVF    CURRENT_MENU, W     ; CURRENT_MENU holds which item is selected (0/1/2)  
010E   00A3           00452     MOVWF   SYSTEM_MODE         ; set SYSTEM_MODE to that mode
010F   20CA           00453     CALL    CLEAR_SCREEN        
0110   2142           00454     CALL    OPEN_MODE_SCREEN    ; draw the mode's screen   
0111   2912           00455     GOTO    ROUTE_BACK
                      00456     
                      00457     ;BACK: return to main menu
0112                  00458 ROUTE_BACK:
MPASM  5.51                       PROJECT.ASM   5-31-2026  23:11:30         PAGE 10


LOC  OBJECT CODE     LINE SOURCE TEXT
  VALUE

0112   1DA4           00459     BTFSS   BTN_BCK_FLG         
0113   291A           00460     GOTO    LOOP_END            
0114   11A4           00461     BCF     BTN_BCK_FLG 
                      00462             
0115   30FF           00463     MOVLW   0xFF                
0116   00A3           00464     MOVWF   SYSTEM_MODE         ; return to main menu
0117   1324           00465     BCF     SW_RUNNING          ; stop stopwatch
0118   20CA           00466     CALL    CLEAR_SCREEN        
0119   211B           00467     CALL    SHOW_MAIN_MENU 
                      00468          
011A                  00469 LOOP_END:
011A   0008           00470     RETURN                      ; return to MAIN after CALL RUN_POLL_INTERFACES
                      00471 
                      00472 
                      00473 ;MAIN MENU DISPLAY  (SHOW_MAIN_MENU):
                      00474 ;Draws all three mode labels on the LCD.
                      00475 ;The currently selected item is drawn INVERTED; others are normal.
                      00476 ;Row layout:  Row 0 = CLOCK,  Row 2 = STOPWATCH,  Row 4 = HSLM.
011B                  00477 SHOW_MAIN_MENU:
011B   20CA           00478     CALL    CLEAR_SCREEN
                      00479 
011C   0822           00480     MOVF    CURRENT_MENU, W 
011D   3A00           00481     XORLW   0x00
011E   1D03           00482     BTFSS   STATUS, Z       
011F   292A           00483     GOTO    MENU_CHECK_STOPWATCH
                      00484 
0120                  00485 CLOCK_SELECTED:
0120   3000           00486     MOVLW   D'0'
0121   20C2           00487     CALL    SET_LCD_ROW
0122   220D           00488     CALL    PRINT_CLOCK_INVERTED
0123   3002           00489     MOVLW   D'2'
0124   20C2           00490     CALL    SET_LCD_ROW
0125   22F4           00491     CALL    PRINT_STOPWATCH_NORMAL
0126   3004           00492     MOVLW   D'4'
0127   20C2           00493     CALL    SET_LCD_ROW
0128   2392           00494     CALL    PRINT_HSLM_NORMAL
0129   0008           00495     RETURN
                      00496 
012A                  00497 MENU_CHECK_STOPWATCH:
012A   0822           00498     MOVF    CURRENT_MENU, W
012B   3A01           00499     XORLW   0x01
012C   1D03           00500     BTFSS   STATUS, Z
012D   2938           00501     GOTO    HSLM_SELECTED
                      00502     
012E                  00503 STOPWATCH_SELECTED:
012E   3000           00504     MOVLW   D'0'
012F   20C2           00505     CALL    SET_LCD_ROW
0130   224A           00506     CALL    PRINT_CLOCK_NORMAL
0131   3002           00507     MOVLW   D'2'
0132   20C2           00508     CALL    SET_LCD_ROW
0133   2287           00509     CALL    PRINT_STOPWATCH_INVERTED
0134   3004           00510     MOVLW   D'4'
0135   20C2           00511     CALL    SET_LCD_ROW
MPASM  5.51                       PROJECT.ASM   5-31-2026  23:11:30         PAGE 11


LOC  OBJECT CODE     LINE SOURCE TEXT
  VALUE

0136   2392           00512     CALL    PRINT_HSLM_NORMAL
0137   0008           00513     RETURN
                      00514     
0138                  00515 HSLM_SELECTED:
0138   3000           00516     MOVLW   D'0'
0139   20C2           00517     CALL    SET_LCD_ROW
013A   224A           00518     CALL    PRINT_CLOCK_NORMAL
013B   3002           00519     MOVLW   D'2'
013C   20C2           00520     CALL    SET_LCD_ROW
013D   22F4           00521     CALL    PRINT_STOPWATCH_NORMAL
013E   3004           00522     MOVLW   D'4'
013F   20C2           00523     CALL    SET_LCD_ROW
0140   2361           00524     CALL    PRINT_HSLM_INVERTED
0141   0008           00525     RETURN
                      00526     
                      00527 
                      00528 ;MODE SCREEN OPENERS   
0142                  00529 OPEN_MODE_SCREEN:
0142   0823           00530     MOVF    SYSTEM_MODE, W
0143   3A00           00531     XORLW   0x00
0144   1903           00532     BTFSC   STATUS, Z
0145   294F           00533     GOTO    OPEN_CLOCK_MODE
                      00534 
0146   0823           00535     MOVF    SYSTEM_MODE, W
0147   3A01           00536     XORLW   0x01
0148   1903           00537     BTFSC   STATUS, Z
0149   299D           00538     GOTO    OPEN_STOPWATCH_MODE
                      00539 
014A   0823           00540     MOVF    SYSTEM_MODE, W
014B   3A02           00541     XORLW   0x02
014C   1903           00542     BTFSC   STATUS, Z
014D   2984           00543     GOTO    OPEN_HSLM_MODE
                      00544 
014E   0008           00545     RETURN
                      00546     
                      00547 ;Clock Mode     
014F                  00548 OPEN_CLOCK_MODE:
014F   2151           00549     CALL    DrawClockScreen
0150   0008           00550     RETURN
                      00551 
0151                  00552 DrawClockScreen:
0151   20CA           00553     CALL    CLEAR_SCREEN
                      00554 
0152   3000           00555     MOVLW   D'0'
0153   20C2           00556     CALL    SET_LCD_ROW        
0154   224A           00557     CALL    PRINT_CLOCK_NORMAL ; label on row 0
0155   2157           00558     CALL    UpdateClock        ; time digits on row 2
0156   0008           00559     RETURN
                      00560 
                      00561 
                      00562 ;UpdateClock:Draws HH:MM:SS on LCD page 2 (row 1).
                      00563 ;Column positions: HH = 0x95/0x9B, MM = 0xA5/0xAB, SS = 0xB5/0xBB.
                      00564 ;Separators blink based on COLON_STATE.
MPASM  5.51                       PROJECT.ASM   5-31-2026  23:11:30         PAGE 12


LOC  OBJECT CODE     LINE SOURCE TEXT
  VALUE

0157                  00565 UpdateClock:
0157   3042           00566     MOVLW   0x42                 ; always force page 2 before drawing time
0158   20A9           00567     CALL    SEND_CMD
                      00568 
                      00569     ; blinking separators
0159   30A1           00570     MOVLW   0xA1                 
015A   20A9           00571     CALL    SEND_CMD
015B   21DF           00572     CALL    DRAW_CLOCK_SEPARATOR
                      00573 
015C   30B1           00574     MOVLW   0xB1
015D   20A9           00575     CALL    SEND_CMD
015E   21DF           00576     CALL    DRAW_CLOCK_SEPARATOR
                      00577 
                      00578     ; seconds
015F   0828           00579     MOVF    CLK_SEC, W
0160   21EF           00580     CALL    SPLIT_2DIGIT
0161   30B5           00581     MOVLW   0xB5
0162   20A9           00582     CALL    SEND_CMD
0163   0833           00583     MOVF    Second_Digit, W
0164   00B0           00584     MOVWF   Digit
0165   21F9           00585     CALL    Send_Font_Digit
0166   30BB           00586     MOVLW   0xBB
0167   20A9           00587     CALL    SEND_CMD
0168   0832           00588     MOVF    First_Digit, W
0169   00B0           00589     MOVWF   Digit
016A   21F9           00590     CALL    Send_Font_Digit
                      00591 
                      00592     ; minutes
016B   0829           00593     MOVF    CLK_MIN, W
016C   21EF           00594     CALL    SPLIT_2DIGIT
016D   30A5           00595     MOVLW   0xA5
016E   20A9           00596     CALL    SEND_CMD
016F   0833           00597     MOVF    Second_Digit, W
0170   00B0           00598     MOVWF   Digit
0171   21F9           00599     CALL    Send_Font_Digit
0172   30AB           00600     MOVLW   0xAB
0173   20A9           00601     CALL    SEND_CMD
0174   0832           00602     MOVF    First_Digit, W
0175   00B0           00603     MOVWF   Digit
0176   21F9           00604     CALL    Send_Font_Digit
                      00605 
                      00606     ; hours
0177   082A           00607     MOVF    CLK_HOUR, W
0178   21EF           00608     CALL    SPLIT_2DIGIT
0179   3095           00609     MOVLW   0x95
017A   20A9           00610     CALL    SEND_CMD
017B   0833           00611     MOVF    Second_Digit, W
017C   00B0           00612     MOVWF   Digit
017D   21F9           00613     CALL    Send_Font_Digit
017E   309B           00614     MOVLW   0x9B
017F   20A9           00615     CALL    SEND_CMD
0180   0832           00616     MOVF    First_Digit, W
0181   00B0           00617     MOVWF   Digit
MPASM  5.51                       PROJECT.ASM   5-31-2026  23:11:30         PAGE 13


LOC  OBJECT CODE     LINE SOURCE TEXT
  VALUE

0182   21F9           00618     CALL    Send_Font_Digit
                      00619 
0183   0008           00620     RETURN
                      00621 
                      00622 ;HSLM Mode 
0184                  00623 OPEN_HSLM_MODE:
0184   01B6           00624     CLRF    HSLM_TICK
0185   303C           00625     MOVLW   D'60'
0186   00B5           00626     MOVWF   HSLM_POS
0187   20CA           00627     CALL    CLEAR_SCREEN
0188   218A           00628     CALL    DrawHSLMScreen
0189   0008           00629     RETURN
                      00630 
018A                  00631 DrawHSLMScreen:
018A   2192           00632     CALL    CLEAR_HSLM_ROW    ; erase only row 3
018B   3043           00633     MOVLW   0x43              ; set page to row 3
018C   20A9           00634     CALL    SEND_CMD
018D   0835           00635     MOVF    HSLM_POS, W
018E   3E80           00636     ADDLW   0x80              ; X-address command + position
018F   20A9           00637     CALL    SEND_CMD
0190   2392           00638     CALL    PRINT_HSLM_NORMAL ;draw sprite
0191   0008           00639     RETURN
                      00640 
0192                  00641 CLEAR_HSLM_ROW:
0192   3043           00642     MOVLW   0x43              ; page 3 only
0193   20A9           00643     CALL    SEND_CMD
0194   3080           00644     MOVLW   0x80              ; X = 0 (column 0)
0195   20A9           00645     CALL    SEND_CMD
0196   3054           00646     MOVLW   D'84'
0197   00A6           00647     MOVWF   CLEAR_CTR_LO
0198                  00648 CLEAR_HSLM_ROW_LOOP:
0198   3000           00649     MOVLW   0x00
0199   20B4           00650     CALL    SEND_DATA
019A   0BA6           00651     DECFSZ  CLEAR_CTR_LO, F
019B   2998           00652     GOTO    CLEAR_HSLM_ROW_LOOP
019C   0008           00653     RETURN
                      00654 
                      00655 
                      00656 ;Stopwatch Mode
019D                  00657 OPEN_STOPWATCH_MODE:             
019D   01A7           00658     CLRF    TICK_COUNT                      
019E   01AC           00659     CLRF    SW_SEC
019F   01AD           00660     CLRF    SW_MI
01A0   01AE           00661     CLRF    SW_HOUR
01A1   21A3           00662     CALL    DrawStopWatchScreen
01A2   0008           00663     RETURN
                      00664     
01A3                  00665 DrawStopWatchScreen:
01A3   20CA           00666     CALL    CLEAR_SCREEN
                      00667     
01A4   3000           00668     MOVLW   D'0'
01A5   20C2           00669     CALL    SET_LCD_ROW
01A6   22F4           00670     CALL    PRINT_STOPWATCH_NORMAL  ; label on row 0
MPASM  5.51                       PROJECT.ASM   5-31-2026  23:11:30         PAGE 14


LOC  OBJECT CODE     LINE SOURCE TEXT
  VALUE

01A7   3003           00671     MOVLW   D'3'
01A8   20C2           00672     CALL    SET_LCD_ROW
01A9   21AB           00673     CALL    UpdateStopWatch
01AA   0008           00674     RETURN
                      00675         
                      00676 
                      00677 ;UpdateStopWatch:Stopwatch digits, same column layout as UpdateClock.     
01AB                  00678 UpdateStopWatch:
01AB   3042           00679     MOVLW   0x42
01AC   20A9           00680     CALL    SEND_CMD
                      00681 
01AD   30A1           00682     MOVLW   0xA1
01AE   20A9           00683     CALL    SEND_CMD
01AF   21DF           00684     CALL    DRAW_CLOCK_SEPARATOR
                      00685 
01B0   30B1           00686     MOVLW   0xB1
01B1   20A9           00687     CALL    SEND_CMD
01B2   21DF           00688     CALL    DRAW_CLOCK_SEPARATOR
                      00689 
                      00690     ; seconds
01B3   082C           00691     MOVF SW_SEC, W
01B4   21EF           00692     CALL SPLIT_2DIGIT
01B5   30B5           00693     MOVLW 0xB5
01B6   20A9           00694     CALL  SEND_CMD
01B7   0833           00695     MOVF Second_Digit, W
01B8   00B0           00696     MOVWF Digit
01B9   21F9           00697     CALL Send_Font_Digit
01BA   30BB           00698     MOVLW 0xBB
01BB   20A9           00699     CALL SEND_CMD
01BC   0832           00700     MOVF First_Digit, W
01BD   00B0           00701     MOVWF Digit
01BE   21F9           00702     CALL Send_Font_Digit
                      00703     
                      00704     ; minutes
01BF   082D           00705     MOVF SW_MI,W
01C0   21EF           00706     CALL SPLIT_2DIGIT
01C1   30A5           00707     MOVLW 0xA5
01C2   20A9           00708     CALL SEND_CMD
01C3   0833           00709     MOVF Second_Digit, W
01C4   00B0           00710     MOVWF Digit
01C5   21F9           00711     CALL Send_Font_Digit
01C6   30AB           00712     MOVLW 0xAB
01C7   20A9           00713     CALL SEND_CMD
01C8   0832           00714     MOVF First_Digit, W
01C9   00B0           00715     MOVWF Digit
01CA   21F9           00716     CALL Send_Font_Digit
                      00717     
                      00718     ; hours
01CB   082E           00719     MOVF SW_HOUR, W
01CC   21EF           00720     CALL SPLIT_2DIGIT
01CD   3095           00721     MOVLW 0x95
01CE   20A9           00722     CALL SEND_CMD
01CF   0833           00723     MOVF Second_Digit, W
MPASM  5.51                       PROJECT.ASM   5-31-2026  23:11:30         PAGE 15


LOC  OBJECT CODE     LINE SOURCE TEXT
  VALUE

01D0   00B0           00724     MOVWF Digit
01D1   21F9           00725     CALL Send_Font_Digit
01D2   309B           00726     MOVLW 0x9B
01D3   20A9           00727     CALL SEND_CMD
01D4   0832           00728     MOVF First_Digit, W
01D5   00B0           00729     MOVWF Digit
01D6   21F9           00730     CALL Send_Font_Digit
                      00731     
01D7   0008           00732     RETURN
                      00733     
                      00734 
                      00735 ;STOPWATCH_TOGGLE:Toggles SW_RUNNING only when the stopwatch screen is active.    
01D8                  00736 STOPWATCH_TOGGLE:     
01D8   0823           00737     MOVF    SYSTEM_MODE, W           
01D9   3A01           00738     XORLW   0x01                ; are we in stopwatch mode?  
01DA   1D03           00739     BTFSS   STATUS, Z           ; Z=1 --> inside the stopwatch module --> skip (not ignore)  
01DB   2912           00740     GOTO    ROUTE_BACK          ; Z=0 --> not inside the stopwatch module --> ignore
                      00741     
01DC   3040           00742     MOVLW   B'01000000'         ; mask for SW_RUNNING (FLAGS bit 6)  
01DD   06A4           00743     XORWF   FLAGS, F            ; toggle   
01DE   2912           00744     GOTO    ROUTE_BACK          ; Complete action and pass down to BACK button check   
                      00745 
                      00746 
                      00747 ;DRAW_CLOCK_SEPARATOR:
                      00748 ;Draws 3 bytes: either dots (0x14) or blank (0x00) based on COLON_STATE.
                      00749 ;Cursor must already be at the correct X position before calling.
01DF                  00750 DRAW_CLOCK_SEPARATOR:
                      00751     ; COLON_STATE bit0 is toggled every second by CLOCK_MATH.
                      00752     ; bit0=0 -> show the dot (colon visible)
                      00753     ; bit0=1 -> send blanks (colon hidden)
01DF   1837           00754     BTFSC   COLON_STATE, 0
01E0   29E8           00755     GOTO    DRAW_SEPARATOR_BLANK 
                      00756     
                      00757     ; Draw visible colon: space, dot, space
01E1   3000           00758     MOVLW   0x00
01E2   20B4           00759     CALL    SEND_DATA
01E3   3014           00760     MOVLW   0x14
01E4   20B4           00761     CALL    SEND_DATA   ; 0x14 = 00010100b = two dots (the colon shape)
01E5   3000           00762     MOVLW   0x00
01E6   20B4           00763     CALL    SEND_DATA
01E7   0008           00764     RETURN
                      00765     
01E8                  00766 DRAW_SEPARATOR_BLANK:
                      00767     ; Draw invisible colon: three blank columns (erase the dot area)
01E8   3000           00768     MOVLW   0x00
01E9   20B4           00769     CALL    SEND_DATA
01EA   3000           00770     MOVLW   0x00
01EB   20B4           00771     CALL    SEND_DATA
01EC   3000           00772     MOVLW   0x00
01ED   20B4           00773     CALL    SEND_DATA
01EE   0008           00774     RETURN
                      00775     
                      00776     
MPASM  5.51                       PROJECT.ASM   5-31-2026  23:11:30         PAGE 16


LOC  OBJECT CODE     LINE SOURCE TEXT
  VALUE

                      00777 ;FONT UTILITIES:
                      00778 ;1.SPLIT_2DIGIT --> value (0-99).
                      00779 ;Returns: First_Digit = ones,  Second_Digit = tens.
                      00780 ;Algorithm: subtract 10 repeatedly.
                      00781 ;Example: value=47 -> subtract 10 four times -> First_Digit=7, Second_Digit=4
01EF                  00782 SPLIT_2DIGIT: 
01EF   00B2           00783     MOVWF First_Digit     ; store the full value in First_Digit
01F0   01B3           00784     CLRF  Second_Digit    ; tens counter starts at 0
01F1                  00785 SPLIT_LOOP:
01F1   300A           00786     MOVLW d'10'
01F2   0232           00787     SUBWF First_Digit, W  ; W = First_Digit - 10
01F3   1C03           00788     BTFSS STATUS, C       ; C=0 means borrow occurred (First_Digit < 10) -> done
01F4   29F8           00789     GOTO  SPLIT_DONE
01F5   00B2           00790     MOVWF First_Digit     ; C=1 means result is valid, store remainder
01F6   0AB3           00791     INCF  Second_Digit, F ; count one more ten
01F7   29F1           00792     GOTO  SPLIT_LOOP
01F8                  00793 SPLIT_DONE:
                      00794     ; Now: Second_Digit = tens place, First_Digit = ones place
01F8   0008           00795     RETURN
                      00796 
                      00797 
                      00798 ;2.Send_Font_Digit --> digit (0-9).
                      00799 ;Looks up 5 column bytes in FONT_Table and sends them via SEND_DATA.
                      00800 ;Index = digit * 5.
                      00801 ;PCLATH must be set to 0x05 for the ORG 0x500 table.    
01F9                  00802 Send_Font_Digit:
01F9   00B0           00803     MOVWF   Digit
01FA   00A0           00804     MOVWF   W_TEMP
01FB   1003           00805     BCF     STATUS, C            ; clear carry before shifting
01FC   0DA0           00806     RLF     W_TEMP, F            ; W_TEMP = Digit * 2
01FD   0DA0           00807     RLF     W_TEMP, F            ; W_TEMP = Digit * 4
01FE   0820           00808     MOVF    W_TEMP, W
01FF   0730           00809     ADDWF   Digit, W             ; W = Digit * 5
0200   00AF           00810     MOVWF   Index                ; Index now points to first byte of this digit in table
                      00811     
0201   3005           00812     MOVLW   0x05
0202   00A0           00813     MOVWF   W_TEMP               ; loop 5 times (one per column byte)
                      00814     
0203                  00815 D_LOOP_OLD:
0203   3005           00816     MOVLW   0x05                 ; page 5 for FONT_Table at ORG 0x500
0204   008A           00817     MOVWF   PCLATH
0205   082F           00818     MOVF    Index, W
0206   2500           00819     CALL    FONT_Table           ; returns one column byte in W via RETLW
0207   018A           00820     CLRF    PCLATH               ; restore PCLATH to page 0 (our code page)
0208   20B4           00821     CALL    SEND_DATA
0209   0AAF           00822     INCF    Index, F             ; advance to next byte 
020A   0BA0           00823     DECFSZ  W_TEMP, F            ; decrement loop counter, skip next if zero
020B   2A03           00824     GOTO    D_LOOP_OLD           ; not zero -> loop again 
020C   0008           00825     RETURN
                      00826     
                      00827     
                      00828 ;TEXT LABEL BITMAPS  (5x8 column-format, 6 bytes per character incl. space)
                      00829 ;Each PRINT_xxx routine sends the raw column data for its label text.
MPASM  5.51                       PROJECT.ASM   5-31-2026  23:11:30         PAGE 17


LOC  OBJECT CODE     LINE SOURCE TEXT
  VALUE

                      00830 ;The Inverted versions XOR each byte with 0xFF for a highlight effect.    
                      00831 
                      00832 ;"CLOCK"
020D                  00833 PRINT_CLOCK_INVERTED:
                      00834     ; C
020D   303E           00835     MOVLW   0x3E
020E   20BF           00836     CALL    SEND_INV_DATA
020F   3041           00837     MOVLW   0x41
0210   20BF           00838     CALL    SEND_INV_DATA
0211   3041           00839     MOVLW   0x41
0212   20BF           00840     CALL    SEND_INV_DATA
0213   3041           00841     MOVLW   0x41
0214   20BF           00842     CALL    SEND_INV_DATA
0215   3022           00843     MOVLW   0x22
0216   20BF           00844     CALL    SEND_INV_DATA
0217   3000           00845     MOVLW   0x00
0218   20BF           00846     CALL    SEND_INV_DATA
                      00847     ; L
0219   307F           00848     MOVLW   0x7F
021A   20BF           00849     CALL    SEND_INV_DATA
021B   3040           00850     MOVLW   0x40
021C   20BF           00851     CALL    SEND_INV_DATA
021D   3040           00852     MOVLW   0x40
021E   20BF           00853     CALL    SEND_INV_DATA
021F   3040           00854     MOVLW   0x40
0220   20BF           00855     CALL    SEND_INV_DATA
0221   3040           00856     MOVLW   0x40
0222   20BF           00857     CALL    SEND_INV_DATA
0223   3000           00858     MOVLW   0x00
0224   20BF           00859     CALL    SEND_INV_DATA
                      00860     ; O
0225   303E           00861     MOVLW   0x3E
0226   20BF           00862     CALL    SEND_INV_DATA
0227   3041           00863     MOVLW   0x41
0228   20BF           00864     CALL    SEND_INV_DATA
0229   3041           00865     MOVLW   0x41
022A   20BF           00866     CALL    SEND_INV_DATA
022B   3041           00867     MOVLW   0x41
022C   20BF           00868     CALL    SEND_INV_DATA
022D   303E           00869     MOVLW   0x3E
022E   20BF           00870     CALL    SEND_INV_DATA
022F   3000           00871     MOVLW   0x00
0230   20BF           00872     CALL    SEND_INV_DATA
                      00873     ; C
0231   303E           00874     MOVLW   0x3E
0232   20BF           00875     CALL    SEND_INV_DATA
0233   3041           00876     MOVLW   0x41
0234   20BF           00877     CALL    SEND_INV_DATA
0235   3041           00878     MOVLW   0x41
0236   20BF           00879     CALL    SEND_INV_DATA
0237   3041           00880     MOVLW   0x41
0238   20BF           00881     CALL    SEND_INV_DATA
0239   3022           00882     MOVLW   0x22
MPASM  5.51                       PROJECT.ASM   5-31-2026  23:11:30         PAGE 18


LOC  OBJECT CODE     LINE SOURCE TEXT
  VALUE

023A   20BF           00883     CALL    SEND_INV_DATA
023B   3000           00884     MOVLW   0x00
023C   20BF           00885     CALL    SEND_INV_DATA
                      00886     ; K
023D   307F           00887     MOVLW   0x7F
023E   20BF           00888     CALL    SEND_INV_DATA
023F   3008           00889     MOVLW   0x08
0240   20BF           00890     CALL    SEND_INV_DATA
0241   3014           00891     MOVLW   0x14
0242   20BF           00892     CALL    SEND_INV_DATA
0243   3022           00893     MOVLW   0x22
0244   20BF           00894     CALL    SEND_INV_DATA
0245   3041           00895     MOVLW   0x41
0246   20BF           00896     CALL    SEND_INV_DATA
0247   3000           00897     MOVLW   0x00
0248   20BF           00898     CALL    SEND_INV_DATA
0249   0008           00899     RETURN
                      00900     
024A                  00901 PRINT_CLOCK_NORMAL:
                      00902     ; C
024A   303E           00903     MOVLW   0x3E
024B   20B4           00904     CALL    SEND_DATA
024C   3041           00905     MOVLW   0x41
024D   20B4           00906     CALL    SEND_DATA
024E   3041           00907     MOVLW   0x41
024F   20B4           00908     CALL    SEND_DATA
0250   3041           00909     MOVLW   0x41
0251   20B4           00910     CALL    SEND_DATA
0252   3022           00911     MOVLW   0x22
0253   20B4           00912     CALL    SEND_DATA
0254   3000           00913     MOVLW   0x00
0255   20B4           00914     CALL    SEND_DATA
                      00915     ; L
0256   307F           00916     MOVLW   0x7F
0257   20B4           00917     CALL    SEND_DATA
0258   3040           00918     MOVLW   0x40
0259   20B4           00919     CALL    SEND_DATA
025A   3040           00920     MOVLW   0x40
025B   20B4           00921     CALL    SEND_DATA
025C   3040           00922     MOVLW   0x40
025D   20B4           00923     CALL    SEND_DATA
025E   3040           00924     MOVLW   0x40
025F   20B4           00925     CALL    SEND_DATA
0260   3000           00926     MOVLW   0x00
0261   20B4           00927     CALL    SEND_DATA
                      00928     ; O
0262   303E           00929     MOVLW   0x3E
0263   20B4           00930     CALL    SEND_DATA
0264   3041           00931     MOVLW   0x41
0265   20B4           00932     CALL    SEND_DATA
0266   3041           00933     MOVLW   0x41
0267   20B4           00934     CALL    SEND_DATA
0268   3041           00935     MOVLW   0x41
MPASM  5.51                       PROJECT.ASM   5-31-2026  23:11:30         PAGE 19


LOC  OBJECT CODE     LINE SOURCE TEXT
  VALUE

0269   20B4           00936     CALL    SEND_DATA
026A   303E           00937     MOVLW   0x3E
026B   20B4           00938     CALL    SEND_DATA
026C   3000           00939     MOVLW   0x00
026D   20B4           00940     CALL    SEND_DATA
                      00941     ; C
026E   303E           00942     MOVLW   0x3E
026F   20B4           00943     CALL    SEND_DATA
0270   3041           00944     MOVLW   0x41
0271   20B4           00945     CALL    SEND_DATA
0272   3041           00946     MOVLW   0x41
0273   20B4           00947     CALL    SEND_DATA
0274   3041           00948     MOVLW   0x41
0275   20B4           00949     CALL    SEND_DATA
0276   3022           00950     MOVLW   0x22
0277   20B4           00951     CALL    SEND_DATA
0278   3000           00952     MOVLW   0x00
0279   20B4           00953     CALL    SEND_DATA
                      00954     ; K
027A   307F           00955     MOVLW   0x7F
027B   20B4           00956     CALL    SEND_DATA
027C   3008           00957     MOVLW   0x08
027D   20B4           00958     CALL    SEND_DATA
027E   3014           00959     MOVLW   0x14
027F   20B4           00960     CALL    SEND_DATA
0280   3022           00961     MOVLW   0x22
0281   20B4           00962     CALL    SEND_DATA
0282   3041           00963     MOVLW   0x41
0283   20B4           00964     CALL    SEND_DATA
0284   3000           00965     MOVLW   0x00
0285   20B4           00966     CALL    SEND_DATA
0286   0008           00967     RETURN
                      00968     
                      00969 ;"STOPWATCH"    
0287                  00970 PRINT_STOPWATCH_INVERTED:
                      00971     ; S
0287   3046           00972     MOVLW   0x46
0288   20BF           00973     CALL    SEND_INV_DATA
0289   3049           00974     MOVLW   0x49
028A   20BF           00975     CALL    SEND_INV_DATA
028B   3049           00976     MOVLW   0x49
028C   20BF           00977     CALL    SEND_INV_DATA
028D   3049           00978     MOVLW   0x49
028E   20BF           00979     CALL    SEND_INV_DATA
028F   3031           00980     MOVLW   0x31
0290   20BF           00981     CALL    SEND_INV_DATA
0291   3000           00982     MOVLW   0x00
0292   20BF           00983     CALL    SEND_INV_DATA
                      00984     ; T
0293   3001           00985     MOVLW   0x01
0294   20BF           00986     CALL    SEND_INV_DATA
0295   3001           00987     MOVLW   0x01
0296   20BF           00988     CALL    SEND_INV_DATA
MPASM  5.51                       PROJECT.ASM   5-31-2026  23:11:30         PAGE 20


LOC  OBJECT CODE     LINE SOURCE TEXT
  VALUE

0297   307F           00989     MOVLW   0x7F
0298   20BF           00990     CALL    SEND_INV_DATA
0299   3001           00991     MOVLW   0x01
029A   20BF           00992     CALL    SEND_INV_DATA
029B   3001           00993     MOVLW   0x01
029C   20BF           00994     CALL    SEND_INV_DATA
029D   3000           00995     MOVLW   0x00
029E   20BF           00996     CALL    SEND_INV_DATA
                      00997     ; O
029F   303E           00998     MOVLW   0x3E
02A0   20BF           00999     CALL    SEND_INV_DATA
02A1   3041           01000     MOVLW   0x41
02A2   20BF           01001     CALL    SEND_INV_DATA
02A3   3041           01002     MOVLW   0x41
02A4   20BF           01003     CALL    SEND_INV_DATA
02A5   3041           01004     MOVLW   0x41
02A6   20BF           01005     CALL    SEND_INV_DATA
02A7   303E           01006     MOVLW   0x3E
02A8   20BF           01007     CALL    SEND_INV_DATA
02A9   3000           01008     MOVLW   0x00
02AA   20BF           01009     CALL    SEND_INV_DATA
                      01010     ; P
02AB   307F           01011     MOVLW   0x7F
02AC   20BF           01012     CALL    SEND_INV_DATA
02AD   3009           01013     MOVLW   0x09
02AE   20BF           01014     CALL    SEND_INV_DATA
02AF   3009           01015     MOVLW   0x09
02B0   20BF           01016     CALL    SEND_INV_DATA
02B1   3009           01017     MOVLW   0x09
02B2   20BF           01018     CALL    SEND_INV_DATA
02B3   3006           01019     MOVLW   0x06
02B4   20BF           01020     CALL    SEND_INV_DATA
02B5   3000           01021     MOVLW   0x00
02B6   20BF           01022     CALL    SEND_INV_DATA
                      01023     ; W
02B7   307F           01024     MOVLW   0x7F
02B8   20BF           01025     CALL    SEND_INV_DATA
02B9   3020           01026     MOVLW   0x20
02BA   20BF           01027     CALL    SEND_INV_DATA
02BB   3018           01028     MOVLW   0x18
02BC   20BF           01029     CALL    SEND_INV_DATA
02BD   3020           01030     MOVLW   0x20
02BE   20BF           01031     CALL    SEND_INV_DATA
02BF   307F           01032     MOVLW   0x7F
02C0   20BF           01033     CALL    SEND_INV_DATA
02C1   3000           01034     MOVLW   0x00
02C2   20BF           01035     CALL    SEND_INV_DATA
                      01036     ; A
02C3   307E           01037     MOVLW   0x7E
02C4   20BF           01038     CALL    SEND_INV_DATA
02C5   3011           01039     MOVLW   0x11
02C6   20BF           01040     CALL    SEND_INV_DATA
02C7   3011           01041     MOVLW   0x11
MPASM  5.51                       PROJECT.ASM   5-31-2026  23:11:30         PAGE 21


LOC  OBJECT CODE     LINE SOURCE TEXT
  VALUE

02C8   20BF           01042     CALL    SEND_INV_DATA
02C9   3011           01043     MOVLW   0x11
02CA   20BF           01044     CALL    SEND_INV_DATA
02CB   307E           01045     MOVLW   0x7E
02CC   20BF           01046     CALL    SEND_INV_DATA
02CD   3000           01047     MOVLW   0x00
02CE   20BF           01048     CALL    SEND_INV_DATA
                      01049     ; T
02CF   3001           01050     MOVLW   0x01
02D0   20BF           01051     CALL    SEND_INV_DATA
02D1   3001           01052     MOVLW   0x01
02D2   20BF           01053     CALL    SEND_INV_DATA
02D3   307F           01054     MOVLW   0x7F
02D4   20BF           01055     CALL    SEND_INV_DATA
02D5   3001           01056     MOVLW   0x01
02D6   20BF           01057     CALL    SEND_INV_DATA
02D7   3001           01058     MOVLW   0x01
02D8   20BF           01059     CALL    SEND_INV_DATA
02D9   3000           01060     MOVLW   0x00
02DA   20BF           01061     CALL    SEND_INV_DATA
                      01062     ; C
02DB   303E           01063     MOVLW   0x3E
02DC   20BF           01064     CALL    SEND_INV_DATA
02DD   3041           01065     MOVLW   0x41
02DE   20BF           01066     CALL    SEND_INV_DATA
02DF   3041           01067     MOVLW   0x41
02E0   20BF           01068     CALL    SEND_INV_DATA
02E1   3041           01069     MOVLW   0x41
02E2   20BF           01070     CALL    SEND_INV_DATA
02E3   3022           01071     MOVLW   0x22
02E4   20BF           01072     CALL    SEND_INV_DATA
02E5   3000           01073     MOVLW   0x00
02E6   20BF           01074     CALL    SEND_INV_DATA
                      01075     ; H
02E7   307F           01076     MOVLW   0x7F
02E8   20BF           01077     CALL    SEND_INV_DATA
02E9   3008           01078     MOVLW   0x08
02EA   20BF           01079     CALL    SEND_INV_DATA
02EB   3008           01080     MOVLW   0x08
02EC   20BF           01081     CALL    SEND_INV_DATA
02ED   3008           01082     MOVLW   0x08
02EE   20BF           01083     CALL    SEND_INV_DATA
02EF   307F           01084     MOVLW   0x7F
02F0   20BF           01085     CALL    SEND_INV_DATA
02F1   3000           01086     MOVLW   0x00
02F2   20BF           01087     CALL    SEND_INV_DATA
02F3   0008           01088     RETURN
                      01089     
02F4                  01090 PRINT_STOPWATCH_NORMAL:
                      01091     ; S
02F4   3046           01092     MOVLW   0x46
02F5   20B4           01093     CALL    SEND_DATA
02F6   3049           01094     MOVLW   0x49
MPASM  5.51                       PROJECT.ASM   5-31-2026  23:11:30         PAGE 22


LOC  OBJECT CODE     LINE SOURCE TEXT
  VALUE

02F7   20B4           01095     CALL    SEND_DATA
02F8   3049           01096     MOVLW   0x49
02F9   20B4           01097     CALL    SEND_DATA
02FA   3049           01098     MOVLW   0x49
02FB   20B4           01099     CALL    SEND_DATA
02FC   3031           01100     MOVLW   0x31
02FD   20B4           01101     CALL    SEND_DATA
02FE   3000           01102     MOVLW   0x00
02FF   20B4           01103     CALL    SEND_DATA
                      01104     ; T
0300   3001           01105     MOVLW   0x01
0301   20B4           01106     CALL    SEND_DATA
0302   3001           01107     MOVLW   0x01
0303   20B4           01108     CALL    SEND_DATA
0304   307F           01109     MOVLW   0x7F
0305   20B4           01110     CALL    SEND_DATA
0306   3001           01111     MOVLW   0x01
0307   20B4           01112     CALL    SEND_DATA
0308   3001           01113     MOVLW   0x01
0309   20B4           01114     CALL    SEND_DATA
030A   3000           01115     MOVLW   0x00
030B   20B4           01116     CALL    SEND_DATA
                      01117     ; O
030C   303E           01118     MOVLW   0x3E
030D   20B4           01119     CALL    SEND_DATA
030E   3041           01120     MOVLW   0x41
030F   20B4           01121     CALL    SEND_DATA
0310   3041           01122     MOVLW   0x41
0311   20B4           01123     CALL    SEND_DATA
0312   3041           01124     MOVLW   0x41
0313   20B4           01125     CALL    SEND_DATA
0314   303E           01126     MOVLW   0x3E
0315   20B4           01127     CALL    SEND_DATA
0316   3000           01128     MOVLW   0x00
0317   20B4           01129     CALL    SEND_DATA
                      01130     ; P
0318   307F           01131     MOVLW   0x7F
0319   20B4           01132     CALL    SEND_DATA
031A   3009           01133     MOVLW   0x09
031B   20B4           01134     CALL    SEND_DATA
031C   3009           01135     MOVLW   0x09
031D   20B4           01136     CALL    SEND_DATA
031E   3009           01137     MOVLW   0x09
031F   20B4           01138     CALL    SEND_DATA
0320   3006           01139     MOVLW   0x06
0321   20B4           01140     CALL    SEND_DATA
0322   3000           01141     MOVLW   0x00
0323   20B4           01142     CALL    SEND_DATA
                      01143     ; W
0324   307F           01144     MOVLW   0x7F
0325   20B4           01145     CALL    SEND_DATA
0326   3020           01146     MOVLW   0x20
0327   20B4           01147     CALL    SEND_DATA
MPASM  5.51                       PROJECT.ASM   5-31-2026  23:11:30         PAGE 23


LOC  OBJECT CODE     LINE SOURCE TEXT
  VALUE

0328   3018           01148     MOVLW   0x18
0329   20B4           01149     CALL    SEND_DATA
032A   3020           01150     MOVLW   0x20
032B   20B4           01151     CALL    SEND_DATA
032C   307F           01152     MOVLW   0x7F
032D   20B4           01153     CALL    SEND_DATA
032E   3000           01154     MOVLW   0x00
032F   20B4           01155     CALL    SEND_DATA
                      01156     ; A
0330   307E           01157     MOVLW   0x7E
0331   20B4           01158     CALL    SEND_DATA
0332   3011           01159     MOVLW   0x11
0333   20B4           01160     CALL    SEND_DATA
0334   3011           01161     MOVLW   0x11
0335   20B4           01162     CALL    SEND_DATA
0336   3011           01163     MOVLW   0x11
0337   20B4           01164     CALL    SEND_DATA
0338   307E           01165     MOVLW   0x7E
0339   20B4           01166     CALL    SEND_DATA
033A   3000           01167     MOVLW   0x00
033B   20B4           01168     CALL    SEND_DATA
                      01169     ; T
033C   3001           01170     MOVLW   0x01
033D   20B4           01171     CALL    SEND_DATA
033E   3001           01172     MOVLW   0x01
033F   20B4           01173     CALL    SEND_DATA
0340   307F           01174     MOVLW   0x7F
0341   20B4           01175     CALL    SEND_DATA
0342   3001           01176     MOVLW   0x01
0343   20B4           01177     CALL    SEND_DATA
0344   3001           01178     MOVLW   0x01
0345   20B4           01179     CALL    SEND_DATA
0346   3000           01180     MOVLW   0x00
0347   20B4           01181     CALL    SEND_DATA
                      01182     ; C
0348   303E           01183     MOVLW   0x3E
0349   20B4           01184     CALL    SEND_DATA
034A   3041           01185     MOVLW   0x41
034B   20B4           01186     CALL    SEND_DATA
034C   3041           01187     MOVLW   0x41
034D   20B4           01188     CALL    SEND_DATA
034E   3041           01189     MOVLW   0x41
034F   20B4           01190     CALL    SEND_DATA
0350   3022           01191     MOVLW   0x22
0351   20B4           01192     CALL    SEND_DATA
0352   3000           01193     MOVLW   0x00
0353   20B4           01194     CALL    SEND_DATA
                      01195     ; H
0354   307F           01196     MOVLW   0x7F
0355   20B4           01197     CALL    SEND_DATA
0356   3008           01198     MOVLW   0x08
0357   20B4           01199     CALL    SEND_DATA
0358   3008           01200     MOVLW   0x08
MPASM  5.51                       PROJECT.ASM   5-31-2026  23:11:30         PAGE 24


LOC  OBJECT CODE     LINE SOURCE TEXT
  VALUE

0359   20B4           01201     CALL    SEND_DATA
035A   3008           01202     MOVLW   0x08
035B   20B4           01203     CALL    SEND_DATA
035C   307F           01204     MOVLW   0x7F
035D   20B4           01205     CALL    SEND_DATA
035E   3000           01206     MOVLW   0x00
035F   20B4           01207     CALL    SEND_DATA
0360   0008           01208     RETURN
                      01209     
                      01210 ;"HSLM"    
0361                  01211 PRINT_HSLM_INVERTED:
                      01212     ; H
0361   307F           01213     MOVLW   0x7F
0362   20BF           01214     CALL    SEND_INV_DATA
0363   3008           01215     MOVLW   0x08
0364   20BF           01216     CALL    SEND_INV_DATA
0365   3008           01217     MOVLW   0x08
0366   20BF           01218     CALL    SEND_INV_DATA
0367   3008           01219     MOVLW   0x08
0368   20BF           01220     CALL    SEND_INV_DATA
0369   307F           01221     MOVLW   0x7F
036A   20BF           01222     CALL    SEND_INV_DATA
036B   3000           01223     MOVLW   0x00
036C   20BF           01224     CALL    SEND_INV_DATA
                      01225     ; S
036D   3046           01226     MOVLW   0x46
036E   20BF           01227     CALL    SEND_INV_DATA
036F   3049           01228     MOVLW   0x49
0370   20BF           01229     CALL    SEND_INV_DATA
0371   3049           01230     MOVLW   0x49
0372   20BF           01231     CALL    SEND_INV_DATA
0373   3049           01232     MOVLW   0x49
0374   20BF           01233     CALL    SEND_INV_DATA
0375   3031           01234     MOVLW   0x31
0376   20BF           01235     CALL    SEND_INV_DATA
0377   3000           01236     MOVLW   0x00
0378   20BF           01237     CALL    SEND_INV_DATA
                      01238     ; L
0379   307F           01239     MOVLW   0x7F
037A   20BF           01240     CALL    SEND_INV_DATA
037B   3040           01241     MOVLW   0x40
037C   20BF           01242     CALL    SEND_INV_DATA
037D   3040           01243     MOVLW   0x40
037E   20BF           01244     CALL    SEND_INV_DATA
037F   3040           01245     MOVLW   0x40
0380   20BF           01246     CALL    SEND_INV_DATA
0381   3040           01247     MOVLW   0x40
0382   20BF           01248     CALL    SEND_INV_DATA
0383   3000           01249     MOVLW   0x00
0384   20BF           01250     CALL    SEND_INV_DATA
                      01251     ; M
0385   307F           01252     MOVLW   0x7F
0386   20BF           01253     CALL    SEND_INV_DATA
MPASM  5.51                       PROJECT.ASM   5-31-2026  23:11:30         PAGE 25


LOC  OBJECT CODE     LINE SOURCE TEXT
  VALUE

0387   3002           01254     MOVLW   0x02
0388   20BF           01255     CALL    SEND_INV_DATA
0389   300C           01256     MOVLW   0x0C
038A   20BF           01257     CALL    SEND_INV_DATA
038B   3002           01258     MOVLW   0x02
038C   20BF           01259     CALL    SEND_INV_DATA
038D   307F           01260     MOVLW   0x7F
038E   20BF           01261     CALL    SEND_INV_DATA
038F   3000           01262     MOVLW   0x00
0390   20BF           01263     CALL    SEND_INV_DATA
0391   0008           01264     RETURN
                      01265     
0392                  01266 PRINT_HSLM_NORMAL:
                      01267     ; H
0392   307F           01268     MOVLW   0x7F
0393   20B4           01269     CALL    SEND_DATA
0394   3008           01270     MOVLW   0x08
0395   20B4           01271     CALL    SEND_DATA
0396   3008           01272     MOVLW   0x08
0397   20B4           01273     CALL    SEND_DATA
0398   3008           01274     MOVLW   0x08
0399   20B4           01275     CALL    SEND_DATA
039A   307F           01276     MOVLW   0x7F
039B   20B4           01277     CALL    SEND_DATA
039C   3000           01278     MOVLW   0x00
039D   20B4           01279     CALL    SEND_DATA
                      01280     ; S
039E   3046           01281     MOVLW   0x46
039F   20B4           01282     CALL    SEND_DATA
03A0   3049           01283     MOVLW   0x49
03A1   20B4           01284     CALL    SEND_DATA
03A2   3049           01285     MOVLW   0x49
03A3   20B4           01286     CALL    SEND_DATA
03A4   3049           01287     MOVLW   0x49
03A5   20B4           01288     CALL    SEND_DATA
03A6   3031           01289     MOVLW   0x31
03A7   20B4           01290     CALL    SEND_DATA
03A8   3000           01291     MOVLW   0x00
03A9   20B4           01292     CALL    SEND_DATA
                      01293     ; L
03AA   307F           01294     MOVLW   0x7F
03AB   20B4           01295     CALL    SEND_DATA
03AC   3040           01296     MOVLW   0x40
03AD   20B4           01297     CALL    SEND_DATA
03AE   3040           01298     MOVLW   0x40
03AF   20B4           01299     CALL    SEND_DATA
03B0   3040           01300     MOVLW   0x40
03B1   20B4           01301     CALL    SEND_DATA
03B2   3040           01302     MOVLW   0x40
03B3   20B4           01303     CALL    SEND_DATA
03B4   3000           01304     MOVLW   0x00
03B5   20B4           01305     CALL    SEND_DATA
                      01306     ; M
MPASM  5.51                       PROJECT.ASM   5-31-2026  23:11:30         PAGE 26


LOC  OBJECT CODE     LINE SOURCE TEXT
  VALUE

03B6   307F           01307     MOVLW   0x7F
03B7   20B4           01308     CALL    SEND_DATA
03B8   3002           01309     MOVLW   0x02
03B9   20B4           01310     CALL    SEND_DATA
03BA   300C           01311     MOVLW   0x0C
03BB   20B4           01312     CALL    SEND_DATA
03BC   3002           01313     MOVLW   0x02
03BD   20B4           01314     CALL    SEND_DATA
03BE   307F           01315     MOVLW   0x7F
03BF   20B4           01316     CALL    SEND_DATA
03C0   3000           01317     MOVLW   0x00
03C1   20B4           01318     CALL    SEND_DATA
03C2   0008           01319     RETURN
                      01320         
                      01321     
                      01322 ;FONT TABLE  (ORG 0x500): Digits 0-9, each 5 bytes (columns). 
                      01323 ;Accessed via PCL jump + PCLATH = 0x05.
                      01324 ;Each RETLW returns one column byte to the caller.
                      01325     
0500                  01326     org 0x500
0500                  01327 FONT_Table:
0500   0782           01328    ADDWF PCL, F     ; PCL = PCL + W -> jump to the entry at offset W
                      01329 ; digit 0 (index 0-4).
0501   343E           01330    RETLW 0x3E
0502   3451           01331    RETLW 0x51
0503   3449           01332    RETLW 0x49
0504   3445           01333    RETLW 0x45
0505   343E           01334    RETLW 0x3E
                      01335 ; digit 1 (index 5-9).
0506   3400           01336    RETLW 0x00
0507   3442           01337    RETLW 0x42
0508   347F           01338    RETLW 0x7F
0509   3440           01339    RETLW 0x40
050A   3400           01340    RETLW 0x00
                      01341 ; digit 2 (index 10-14).
050B   3442           01342    RETLW 0x42
050C   3461           01343    RETLW 0x61
050D   3451           01344    RETLW 0x51
050E   3449           01345    RETLW 0x49
050F   3446           01346    RETLW 0x46
                      01347 ; digit 3  (index 15-19).
0510   3421           01348    RETLW 0x21
0511   3441           01349    RETLW 0x41
0512   3445           01350    RETLW 0x45
0513   344B           01351    RETLW 0x4B
0514   3431           01352    RETLW 0x31
                      01353 ; digit 4  (index 20-24).
0515   3418           01354    RETLW 0x18
0516   3414           01355    RETLW 0x14
0517   3412           01356    RETLW 0x12
0518   347F           01357    RETLW 0x7F
0519   3410           01358    RETLW 0x10
                      01359 ; digit 5  (index 25-29).
MPASM  5.51                       PROJECT.ASM   5-31-2026  23:11:30         PAGE 27


LOC  OBJECT CODE     LINE SOURCE TEXT
  VALUE

051A   3427           01360    RETLW 0x27
051B   3445           01361    RETLW 0x45
051C   3445           01362    RETLW 0x45
051D   3445           01363    RETLW 0x45
051E   3439           01364    RETLW 0x39
                      01365 ; digit 6  (index 30-34).
051F   343C           01366    RETLW 0x3C
0520   344A           01367    RETLW 0x4A
0521   3449           01368    RETLW 0x49
0522   3449           01369    RETLW 0x49
0523   3430           01370    RETLW 0x30
                      01371 ; digit 7  (index 35-39).
0524   3401           01372    RETLW 0x01
0525   3471           01373    RETLW 0x71
0526   3409           01374    RETLW 0x09
0527   3405           01375    RETLW 0x05
0528   3403           01376    RETLW 0x03
                      01377 ; digit 8  (index 40-44).
0529   3436           01378    RETLW 0x36
052A   3449           01379    RETLW 0x49
052B   3449           01380    RETLW 0x49
052C   3449           01381    RETLW 0x49
052D   3436           01382    RETLW 0x36
                      01383 ; digit 9  (index 45-49).
052E   3406           01384    RETLW 0x06
052F   3449           01385    RETLW 0x49
0530   3449           01386    RETLW 0x49
0531   3429           01387    RETLW 0x29
0532   341E           01388    RETLW 0x1E
                      01389 
                      01390 ;END OF PROGRAM
0533   2D33           01391 loop goto loop
                      01392      end
MPASM  5.51                       PROJECT.ASM   5-31-2026  23:11:30         PAGE 28


SYMBOL TABLE
  LABEL                             VALUE 

ACKDT                             00000005
ACKEN                             00000004
ACKSTAT                           00000006
ADCON0                            0000001F
ADCON1                            0000009F
ADCS0                             00000006
ADCS1                             00000007
ADCS2                             00000006
ADDEN                             00000003
ADFM                              00000007
ADIE                              00000006
ADIF                              00000006
ADON                              00000000
ADRESH                            0000001E
ADRESL                            0000009E
BCK_RELEASED                      000000F6
BCLIE                             00000003
BCLIF                             00000003
BF                                00000000
BRGH                              00000002
BTN_BCK                           6
BTN_BCK_FLG                       FLAGS,3
BTN_BCK_LOCK                      BTN_LOCK,2
BTN_ENT                           5
BTN_ENT_FLG                       FLAGS,2
BTN_ENT_LOCK                      BTN_LOCK,1
BTN_LOCK                          00000038
BTN_PORT                          PORTB
BTN_SEL                           4
BTN_SEL_FLG                       FLAGS,1
BTN_SEL_LOCK                      BTN_LOCK,0
BTN_TRIS                          TRISB
C                                 00000000
C1INV                             00000004
C1OUT                             00000006
C2INV                             00000005
C2OUT                             00000007
CCP1CON                           00000017
CCP1IE                            00000002
CCP1IF                            00000002
CCP1M0                            00000000
CCP1M1                            00000001
CCP1M2                            00000002
CCP1M3                            00000003
CCP1X                             00000005
CCP1Y                             00000004
CCP2CON                           0000001D
CCP2IE                            00000000
CCP2IF                            00000000
CCP2M0                            00000000
CCP2M1                            00000001
CCP2M2                            00000002
CCP2M3                            00000003
MPASM  5.51                       PROJECT.ASM   5-31-2026  23:11:30         PAGE 29


SYMBOL TABLE
  LABEL                             VALUE 

CCP2X                             00000005
CCP2Y                             00000004
CCPR1                             00000015
CCPR1H                            00000016
CCPR1L                            00000015
CCPR2                             0000001B
CCPR2H                            0000001C
CCPR2L                            0000001B
CHECK_BUTTONS                     000000DD
CHK_BACK                          000000EF
CHK_ENTER                         000000E7
CHS0                              00000003
CHS1                              00000004
CHS2                              00000005
CIS                               00000003
CKE                               00000006
CKP                               00000004
CLEAR_COL_LOOP                    000000D2
CLEAR_CTR_HI                      00000025
CLEAR_CTR_LO                      00000026
CLEAR_HSLM_ROW                    00000192
CLEAR_HSLM_ROW_LOOP               00000198
CLEAR_PAGE_LOOP                   000000D0
CLEAR_SCREEN                      000000CA
CLK_HOUR                          0000002A
CLK_MIN                           00000029
CLK_SEC                           00000028
CLK_UPD_FLG                       FLAGS,4
CLOCK_MATH                        00000081
CLOCK_SELECTED                    00000120
CM0                               00000000
CM1                               00000001
CM2                               00000002
CMCON                             0000009C
CMIE                              00000006
CMIF                              00000006
COLON_STATE                       00000037
CREN                              00000004
CSRC                              00000007
CURRENT_MENU                      00000022
CVR0                              00000000
CVR1                              00000001
CVR2                              00000002
CVR3                              00000003
CVRCON                            0000009D
CVREN                             00000007
CVROE                             00000006
CVRR                              00000005
D                                 00000005
DATA_ADDRESS                      00000005
DC                                00000001
DRAW_CLOCK_SEPARATOR              000001DF
DRAW_SEPARATOR_BLANK              000001E8
MPASM  5.51                       PROJECT.ASM   5-31-2026  23:11:30         PAGE 30


SYMBOL TABLE
  LABEL                             VALUE 

D_A                               00000005
D_LOOP_OLD                        00000203
D_NOT_A                           00000005
Digit                             00000030
DrawClockScreen                   00000151
DrawHSLMScreen                    0000018A
DrawStopWatchScreen               000001A3
EEADR                             0000010D
EEADRH                            0000010F
EECON1                            0000018C
EECON2                            0000018D
EEDATA                            0000010C
EEDATH                            0000010E
EEIE                              00000004
EEIF                              00000004
EEPGD                             00000007
ENT_RELEASED                      000000EE
F                                 00000001
FERR                              00000002
FLAGS                             00000024
FONT_TEMP                         00000031
FONT_Table                        00000500
FSR                               00000004
First_Digit                       00000032
GCEN                              00000007
GIE                               00000007
GO                                00000002
GO_DONE                           00000002
GO_NOT_DONE                       00000002
HSLM_DRAW_NOW                     0000007F
HSLM_MATH                         0000006F
HSLM_POS                          00000035
HSLM_SELECTED                     00000138
HSLM_TICK                         00000036
I2C_DATA                          00000005
I2C_READ                          00000002
I2C_START                         00000003
I2C_STOP                          00000004
IBF                               00000007
IBOV                              00000005
INDF                              00000000
INITIALIZE_LCD                    00000041
INIT_MSSP                         00000038
INIT_TIMER0                       0000002C
INTCON                            0000000B
INTE                              00000004
INTEDG                            00000006
INTF                              00000001
IRP                               00000007
ISR                               00000004
ISR_EXIT                          0000000C
Index                             0000002F
LCD_CE                            2
MPASM  5.51                       PROJECT.ASM   5-31-2026  23:11:30         PAGE 31


SYMBOL TABLE
  LABEL                             VALUE 

LCD_DC                            1
LCD_RST                           0
LOOP_END                          0000011A
MAIN                              00000054
MENU_CHECK_STOPWATCH              0000012A
NOT_A                             00000005
NOT_ADDRESS                       00000005
NOT_BO                            00000000
NOT_BOR                           00000000
NOT_DONE                          00000002
NOT_PD                            00000003
NOT_POR                           00000001
NOT_RBPU                          00000007
NOT_RC8                           00000006
NOT_T1SYNC                        00000002
NOT_TO                            00000004
NOT_TX8                           00000006
NOT_W                             00000002
NOT_WRITE                         00000002
OBF                               00000006
OERR                              00000001
OPEN_CLOCK_MODE                   0000014F
OPEN_HSLM_MODE                    00000184
OPEN_MODE_SCREEN                  00000142
OPEN_STOPWATCH_MODE               0000019D
OPTION_REG                        00000081
P                                 00000004
PCFG0                             00000000
PCFG1                             00000001
PCFG2                             00000002
PCFG3                             00000003
PCL                               00000002
PCLATH                            0000000A
PCON                              0000008E
PEIE                              00000006
PEN                               00000002
PIE1                              0000008C
PIE2                              0000008D
PIR1                              0000000C
PIR2                              0000000D
POLL_INTERFACES                   000000F8
PORTA                             00000005
PORTB                             00000006
PORTC                             00000007
PORTD                             00000008
PORTE                             00000009
PORT_LCD                          PORTD
PR2                               00000092
PRINT_CLOCK_INVERTED              0000020D
PRINT_CLOCK_NORMAL                0000024A
PRINT_HSLM_INVERTED               00000361
PRINT_HSLM_NORMAL                 00000392
PRINT_STOPWATCH_INVERTED          00000287
MPASM  5.51                       PROJECT.ASM   5-31-2026  23:11:30         PAGE 32


SYMBOL TABLE
  LABEL                             VALUE 

PRINT_STOPWATCH_NORMAL            000002F4
PS0                               00000000
PS1                               00000001
PS2                               00000002
PSA                               00000003
PSPIE                             00000007
PSPIF                             00000007
PSPMODE                           00000004
R                                 00000002
RA0                               00000000
RA1                               00000001
RA2                               00000002
RA3                               00000003
RA4                               00000004
RA5                               00000005
RB0                               00000000
RB1                               00000001
RB2                               00000002
RB3                               00000003
RB4                               00000004
RB5                               00000005
RB6                               00000006
RB7                               00000007
RBIE                              00000003
RBIF                              00000000
RC0                               00000000
RC1                               00000001
RC2                               00000002
RC3                               00000003
RC4                               00000004
RC5                               00000005
RC6                               00000006
RC7                               00000007
RC8_9                             00000006
RC9                               00000006
RCD8                              00000000
RCEN                              00000003
RCIE                              00000005
RCIF                              00000005
RCREG                             0000001A
RCSTA                             00000018
RD                                00000000
RD0                               00000000
RD1                               00000001
RD2                               00000002
RD3                               00000003
RD4                               00000004
RD5                               00000005
RD6                               00000006
RD7                               00000007
RE0                               00000000
RE1                               00000001
RE2                               00000002
MPASM  5.51                       PROJECT.ASM   5-31-2026  23:11:30         PAGE 33


SYMBOL TABLE
  LABEL                             VALUE 

READ_WRITE                        00000002
REFRESH_ACTIVE_SCREEN             00000066
ROUTE_BACK                        00000112
ROUTE_ENTER                       00000106
RP0                               00000005
RP1                               00000006
RSEN                              00000001
RUN_POLL_INTERFACES               0000005A
RX9                               00000006
RX9D                              00000000
R_NOT_W                           00000002
R_W                               00000002
S                                 00000003
SEL_RELEASED                      000000E6
SEN                               00000000
SEND_CMD                          000000A9
SEND_DATA                         000000B4
SEND_INV_DATA                     000000BF
SET_LCD_ROW                       000000C2
SHOW_MAIN_MENU                    0000011B
SMP                               00000007
SPBRG                             00000099
SPEN                              00000007
SPLIT_2DIGIT                      000001EF
SPLIT_DONE                        000001F8
SPLIT_LOOP                        000001F1
SREN                              00000005
SSPADD                            00000093
SSPBUF                            00000013
SSPCON                            00000014
SSPCON2                           00000091
SSPEN                             00000005
SSPIE                             00000003
SSPIF                             00000003
SSPM0                             00000000
SSPM1                             00000001
SSPM2                             00000002
SSPM3                             00000003
SSPOV                             00000006
SSPSTAT                           00000094
START_INITIALIZE                  00000011
STATUS                            00000003
STATUS_TEMP                       00000021
STOPWATCH_MATH                    00000096
STOPWATCH_SELECTED                0000012E
STOPWATCH_TOGGLE                  000001D8
SW_HOUR                           0000002E
SW_MI                             0000002D
SW_MS                             0000002B
SW_RUNNING                        FLAGS,6
SW_SEC                            0000002C
SW_UPD_FLG                        FLAGS,5
SYNC                              00000004
MPASM  5.51                       PROJECT.ASM   5-31-2026  23:11:30         PAGE 34


SYMBOL TABLE
  LABEL                             VALUE 

SYSTEM_MODE                       00000023
Second_Digit                      00000033
Send_Font_Digit                   000001F9
StartCounter                      0000005B
T0CS                              00000005
T0IE                              00000005
T0IF                              00000002
T0SE                              00000004
T1CKPS0                           00000004
T1CKPS1                           00000005
T1CON                             00000010
T1INSYNC                          00000002
T1OSCEN                           00000003
T1SYNC                            00000002
T2CKPS0                           00000000
T2CKPS1                           00000001
T2CON                             00000012
TICK_COUNT                        00000027
TICK_FLG                          FLAGS,0
TMR0                              00000001
TMR0IE                            00000005
TMR0IF                            00000002
TMR1                              0000000E
TMR1CS                            00000001
TMR1H                             0000000F
TMR1IE                            00000000
TMR1IF                            00000000
TMR1L                             0000000E
TMR1ON                            00000000
TMR2                              00000011
TMR2IE                            00000001
TMR2IF                            00000001
TMR2ON                            00000002
TOUTPS0                           00000003
TOUTPS1                           00000004
TOUTPS2                           00000005
TOUTPS3                           00000006
TRISA                             00000085
TRISA0                            00000000
TRISA1                            00000001
TRISA2                            00000002
TRISA3                            00000003
TRISA4                            00000004
TRISA5                            00000005
TRISB                             00000086
TRISB0                            00000000
TRISB1                            00000001
TRISB2                            00000002
TRISB3                            00000003
TRISB4                            00000004
TRISB5                            00000005
TRISB6                            00000006
TRISB7                            00000007
MPASM  5.51                       PROJECT.ASM   5-31-2026  23:11:30         PAGE 35


SYMBOL TABLE
  LABEL                             VALUE 

TRISC                             00000087
TRISC0                            00000000
TRISC1                            00000001
TRISC2                            00000002
TRISC3                            00000003
TRISC4                            00000004
TRISC5                            00000005
TRISC6                            00000006
TRISC7                            00000007
TRISD                             00000088
TRISD0                            00000000
TRISD1                            00000001
TRISD2                            00000002
TRISD3                            00000003
TRISD4                            00000004
TRISD5                            00000005
TRISD6                            00000006
TRISD7                            00000007
TRISE                             00000089
TRISE0                            00000000
TRISE1                            00000001
TRISE2                            00000002
TRIS_LCD                          TRISD
TRMT                              00000001
TX8_9                             00000006
TX9                               00000006
TX9D                              00000000
TXD8                              00000000
TXEN                              00000005
TXIE                              00000004
TXIF                              00000004
TXREG                             00000019
TXSTA                             00000098
UA                                00000001
UpdateClock                       00000157
UpdateStopWatch                   000001AB
W                                 00000000
WAIT_SPI_CMD                      000000AD
WAIT_SPI_DATA                     000000B8
WCOL                              00000007
WR                                00000001
WREN                              00000002
WRERR                             00000003
W_TEMP                            00000020
Z                                 00000002
_BODEN_OFF                        00003FBF
_BODEN_ON                         00003FFF
_BOREN_OFF                        00003FBF
_BOREN_ON                         00003FFF
_CONFIG                           00002007
_CPD_OFF                          00003FFF
_CPD_ON                           00003EFF
_CP_ALL                           00001FFF
MPASM  5.51                       PROJECT.ASM   5-31-2026  23:11:30         PAGE 36


SYMBOL TABLE
  LABEL                             VALUE 

_CP_OFF                           00003FFF
_CP_ON                            00001FFF
_DEBUG_OFF                        00003FFF
_DEBUG_ON                         000037FF
_DEVID1                           00002006
_FOSC_EXTRC                       00003FFF
_FOSC_HS                          00003FFE
_FOSC_LP                          00003FFC
_FOSC_XT                          00003FFD
_HS_OSC                           00003FFE
_IDLOC0                           00002000
_IDLOC1                           00002001
_IDLOC2                           00002002
_IDLOC3                           00002003
_LP_OSC                           00003FFC
_LVP_OFF                          00003F7F
_LVP_ON                           00003FFF
_PWRTE_OFF                        00003FFF
_PWRTE_ON                         00003FF7
_RC_OSC                           00003FFF
_WDTE_OFF                         00003FFB
_WDTE_ON                          00003FFF
_WDT_OFF                          00003FFB
_WDT_ON                           00003FFF
_WRT_1FOURTH                      00003BFF
_WRT_256                          00003DFF
_WRT_HALF                         000039FF
_WRT_OFF                          00003FFF
_XT_OSC                           00003FFD
__16F877A                         00000001
__DEBUG                           1
clkTickFlag                       00000034
loop                              00000533


MEMORY USAGE MAP ('X' = Used,  '-' = Unused)

0000 : X---XXXXXXXXXXXX XXXXXXXXXXXXXXXX XXXXXXXXXXXXXXXX XXXXXXXXXXXXXXXX
0040 : XXXXXXXXXXXXXXXX XXXXXXXXXXXXXXXX XXXXXXXXXXXXXXXX XXXXXXXXXXXXXXXX
0080 : XXXXXXXXXXXXXXXX XXXXXXXXXXXXXXXX XXXXXXXXXXXXXXXX XXXXXXXXXXXXXXXX
00C0 : XXXXXXXXXXXXXXXX XXXXXXXXXXXXXXXX XXXXXXXXXXXXXXXX XXXXXXXXXXXXXXXX
0100 : XXXXXXXXXXXXXXXX XXXXXXXXXXXXXXXX XXXXXXXXXXXXXXXX XXXXXXXXXXXXXXXX
0140 : XXXXXXXXXXXXXXXX XXXXXXXXXXXXXXXX XXXXXXXXXXXXXXXX XXXXXXXXXXXXXXXX
0180 : XXXXXXXXXXXXXXXX XXXXXXXXXXXXXXXX XXXXXXXXXXXXXXXX XXXXXXXXXXXXXXXX
01C0 : XXXXXXXXXXXXXXXX XXXXXXXXXXXXXXXX XXXXXXXXXXXXXXXX XXXXXXXXXXXXXXXX
0200 : XXXXXXXXXXXXXXXX XXXXXXXXXXXXXXXX XXXXXXXXXXXXXXXX XXXXXXXXXXXXXXXX
MPASM  5.51                       PROJECT.ASM   5-31-2026  23:11:30         PAGE 37


MEMORY USAGE MAP ('X' = Used,  '-' = Unused)


0240 : XXXXXXXXXXXXXXXX XXXXXXXXXXXXXXXX XXXXXXXXXXXXXXXX XXXXXXXXXXXXXXXX
0280 : XXXXXXXXXXXXXXXX XXXXXXXXXXXXXXXX XXXXXXXXXXXXXXXX XXXXXXXXXXXXXXXX
02C0 : XXXXXXXXXXXXXXXX XXXXXXXXXXXXXXXX XXXXXXXXXXXXXXXX XXXXXXXXXXXXXXXX
0300 : XXXXXXXXXXXXXXXX XXXXXXXXXXXXXXXX XXXXXXXXXXXXXXXX XXXXXXXXXXXXXXXX
0340 : XXXXXXXXXXXXXXXX XXXXXXXXXXXXXXXX XXXXXXXXXXXXXXXX XXXXXXXXXXXXXXXX
0380 : XXXXXXXXXXXXXXXX XXXXXXXXXXXXXXXX XXXXXXXXXXXXXXXX XXXXXXXXXXXXXXXX
03C0 : XXX------------- ---------------- ---------------- ----------------
0500 : XXXXXXXXXXXXXXXX XXXXXXXXXXXXXXXX XXXXXXXXXXXXXXXX XXXX------------

All other memory blocks unused.

Program Memory Words Used:  1012
Program Memory Words Free:  7180


Errors   :     0
Warnings :     0 reported,     0 suppressed
Messages :     8 reported,     0 suppressed

